; Function Attrs: mustprogress nounwind uwtable
define hidden void @_ZN2cv3mcc6CChartD2Ev(ptr noundef nonnull readonly align 8 captures(none) dereferenceable(56) %0) unnamed_addr #4 align 2 personality ptr @__gxx_personality_v0 {
  %2 = load ptr, ptr %0, align 8, !tbaa !3
  %.not.i.i.i = icmp eq ptr %2, null
  br i1 %.not.i.i.i, label %_ZNSt6vectorIN2cv6Point_IfEESaIS2_EED2Ev.exit, label %3

3:                                                ; preds = %1
  tail call void @_ZdlPv(ptr noundef nonnull %2) #17
  br label %_ZNSt6vectorIN2cv6Point_IfEESaIS2_EED2Ev.exit

_ZNSt6vectorIN2cv6Point_IfEESaIS2_EED2Ev.exit:    ; preds = %1, %3
  ret void
}